target datalayout = "e-m:e-p270:32:32-p271:32:32-p272:64:64-i64:64-i128:128-f80:128-n8:16:32:64-S128"
target triple = "x86_64-pc-linux-gnu"

%struct.yyjson_alc = type { ptr, ptr, ptr, ptr }
%struct.dyn_ctx = type { %struct.dyn_chunk, %struct.dyn_chunk }
%struct.dyn_chunk = type { i64, ptr }

@__const.yyjson_alc_dyn_free.def = private unnamed_addr constant %struct.yyjson_alc { ptr @default_malloc, ptr @default_realloc, ptr @default_free, ptr null }, align 8

; Function Attrs: nounwind uwtable
define dso_local void @yyjson_alc_dyn_free(ptr noundef %0) #0 {
  %2 = alloca ptr, align 8
  %3 = alloca %struct.yyjson_alc, align 8
  %4 = alloca ptr, align 8
  %5 = alloca ptr, align 8
  %6 = alloca ptr, align 8
  %7 = alloca i32, align 4
  store ptr %0, ptr %2, align 8, !tbaa !4
  call void @llvm.lifetime.start.p0(i64 32, ptr %3) #13
  call void @llvm.memcpy.p0.p0.i64(ptr align 8 %3, ptr align 8 @__const.yyjson_alc_dyn_free.def, i64 32, i1 false)
  call void @llvm.lifetime.start.p0(i64 8, ptr %4) #13
  %8 = load ptr, ptr %2, align 8, !tbaa !4
  %9 = getelementptr inbounds %struct.yyjson_alc, ptr %8, i64 1
  store ptr %9, ptr %4, align 8, !tbaa !9
  call void @llvm.lifetime.start.p0(i64 8, ptr %5) #13
  call void @llvm.lifetime.start.p0(i64 8, ptr %6) #13
  %10 = load ptr, ptr %2, align 8, !tbaa !4
  %11 = icmp ne ptr %10, null
  %12 = xor i1 %11, true
  %13 = xor i1 %12, true
  %14 = xor i1 %13, true
  %15 = zext i1 %14 to i32
  %16 = sext i32 %15 to i64
  %17 = call i64 @llvm.expect.i64(i64 %16, i64 0)
  %18 = icmp ne i64 %17, 0
  br i1 %18, label %19, label %20

19:                                               ; preds = %1
  store i32 1, ptr %7, align 4
  br label %64

20:                                               ; preds = %1
  %21 = load ptr, ptr %4, align 8, !tbaa !9
  %22 = getelementptr inbounds nuw %struct.dyn_ctx, ptr %21, i32 0, i32 0
  %23 = getelementptr inbounds nuw %struct.dyn_chunk, ptr %22, i32 0, i32 1
  %24 = load ptr, ptr %23, align 8, !tbaa !32
  store ptr %24, ptr %5, align 8, !tbaa !36
  br label %25

25:                                               ; preds = %37, %20
  %26 = load ptr, ptr %5, align 8, !tbaa !36
  %27 = icmp ne ptr %26, null
  br i1 %27, label %28, label %39

28:                                               ; preds = %25
  %29 = load ptr, ptr %5, align 8, !tbaa !36
  %30 = getelementptr inbounds nuw %struct.dyn_chunk, ptr %29, i32 0, i32 1
  %31 = load ptr, ptr %30, align 8, !tbaa !38
  store ptr %31, ptr %6, align 8, !tbaa !36
  %32 = getelementptr inbounds nuw %struct.yyjson_alc, ptr %3, i32 0, i32 2
  %33 = load ptr, ptr %32, align 8, !tbaa !26
  %34 = getelementptr inbounds nuw %struct.yyjson_alc, ptr %3, i32 0, i32 3
  %35 = load ptr, ptr %34, align 8, !tbaa !27
  %36 = load ptr, ptr %5, align 8, !tbaa !36
  call void %33(ptr noundef %35, ptr noundef %36)
  br label %37

37:                                               ; preds = %28
  %38 = load ptr, ptr %6, align 8, !tbaa !36
  store ptr %38, ptr %5, align 8, !tbaa !36
  br label %25, !llvm.loop !40

39:                                               ; preds = %25
  %40 = load ptr, ptr %4, align 8, !tbaa !9
  %41 = getelementptr inbounds nuw %struct.dyn_ctx, ptr %40, i32 0, i32 1
  %42 = getelementptr inbounds nuw %struct.dyn_chunk, ptr %41, i32 0, i32 1
  %43 = load ptr, ptr %42, align 8, !tbaa !41
  store ptr %43, ptr %5, align 8, !tbaa !36
  br label %44

44:                                               ; preds = %56, %39
  %45 = load ptr, ptr %5, align 8, !tbaa !36
  %46 = icmp ne ptr %45, null
  br i1 %46, label %47, label %58

47:                                               ; preds = %44
  %48 = load ptr, ptr %5, align 8, !tbaa !36
  %49 = getelementptr inbounds nuw %struct.dyn_chunk, ptr %48, i32 0, i32 1
  %50 = load ptr, ptr %49, align 8, !tbaa !38
  store ptr %50, ptr %6, align 8, !tbaa !36
  %51 = getelementptr inbounds nuw %struct.yyjson_alc, ptr %3, i32 0, i32 2
  %52 = load ptr, ptr %51, align 8, !tbaa !26
  %53 = getelementptr inbounds nuw %struct.yyjson_alc, ptr %3, i32 0, i32 3
  %54 = load ptr, ptr %53, align 8, !tbaa !27
  %55 = load ptr, ptr %5, align 8, !tbaa !36
  call void %52(ptr noundef %54, ptr noundef %55)
  br label %56

56:                                               ; preds = %47
  %57 = load ptr, ptr %6, align 8, !tbaa !36
  store ptr %57, ptr %5, align 8, !tbaa !36
  br label %44, !llvm.loop !42

58:                                               ; preds = %44
  %59 = getelementptr inbounds nuw %struct.yyjson_alc, ptr %3, i32 0, i32 2
  %60 = load ptr, ptr %59, align 8, !tbaa !26
  %61 = getelementptr inbounds nuw %struct.yyjson_alc, ptr %3, i32 0, i32 3
  %62 = load ptr, ptr %61, align 8, !tbaa !27
  %63 = load ptr, ptr %2, align 8, !tbaa !4
  call void %60(ptr noundef %62, ptr noundef %63)
  store i32 0, ptr %7, align 4
  br label %64

64:                                               ; preds = %58, %19
  call void @llvm.lifetime.end.p0(i64 8, ptr %6) #13
  call void @llvm.lifetime.end.p0(i64 8, ptr %5) #13
  call void @llvm.lifetime.end.p0(i64 8, ptr %4) #13
  call void @llvm.lifetime.end.p0(i64 32, ptr %3) #13
  %65 = load i32, ptr %7, align 4
  switch i32 %65, label %67 [
    i32 0, label %66
    i32 1, label %66
  ]

66:                                               ; preds = %64, %64
  ret void

67:                                               ; preds = %64
  unreachable
}