; Function Attrs: nounwind uwtable
define dso_local void @yyjson_alc_dyn_free(ptr noundef captures(address_is_null) %0) local_unnamed_addr #8 {
  %.not = icmp eq ptr %0, null
  br i1 %.not, label %11, label %2, !prof !4

2:                                                ; preds = %1
  %3 = getelementptr inbounds nuw i8, ptr %0, i64 40
  %4 = load ptr, ptr %3, align 8, !tbaa !29
  %.not1719 = icmp eq ptr %4, null
  br i1 %.not1719, label %._crit_edge, label %.lr.ph

.lr.ph:                                           ; preds = %2, %.lr.ph
  %.020 = phi ptr [ %6, %.lr.ph ], [ %4, %2 ]
  %5 = getelementptr inbounds nuw i8, ptr %.020, i64 8
  %6 = load ptr, ptr %5, align 8, !tbaa !34
  tail call void @free(ptr noundef nonnull %.020) #31
  %.not17 = icmp eq ptr %6, null
  br i1 %.not17, label %._crit_edge, label %.lr.ph, !llvm.loop !37

._crit_edge:                                      ; preds = %.lr.ph, %2
  %7 = getelementptr inbounds nuw i8, ptr %0, i64 56
  %8 = load ptr, ptr %7, align 8, !tbaa !38
  %.not1821 = icmp eq ptr %8, null
  br i1 %.not1821, label %._crit_edge25, label %.lr.ph24

.lr.ph24:                                         ; preds = %._crit_edge, %.lr.ph24
  %.122 = phi ptr [ %10, %.lr.ph24 ], [ %8, %._crit_edge ]
  %9 = getelementptr inbounds nuw i8, ptr %.122, i64 8
  %10 = load ptr, ptr %9, align 8, !tbaa !34
  tail call void @free(ptr noundef nonnull %.122) #31
  %.not18 = icmp eq ptr %10, null
  br i1 %.not18, label %._crit_edge25, label %.lr.ph24, !llvm.loop !39

._crit_edge25:                                    ; preds = %.lr.ph24, %._crit_edge
  tail call void @free(ptr noundef nonnull %0) #31
  br label %11

11:                                               ; preds = %1, %._crit_edge25
  ret void
}